target datalayout = "e-m:e-p270:32:32-p271:32:32-p272:64:64-i64:64-i128:128-f80:128-n8:16:32:64-S128"
target triple = "x86_64-pc-linux-gnu"

%struct._diam_ctx_t = type { ptr, ptr, ptr }
%struct._diam_sub_dis_t = type { i32, i32, i32, i8, i32, ptr, ptr, i32, i32, i8 }
%struct._diam_avp_t = type { i32, ptr, ptr, i32, i32, ptr }

; Function Attrs: null_pointer_is_valid sspstrong uwtable
define internal ptr @grouped_avp(ptr noundef %0, ptr noundef %1, ptr noundef %2, ptr noundef %3) #0 {
  %5 = alloca ptr, align 8
  %6 = alloca ptr, align 8
  %7 = alloca ptr, align 8
  %8 = alloca ptr, align 8
  %9 = alloca i32, align 4
  %10 = alloca i32, align 4
  %11 = alloca ptr, align 8
  %12 = alloca ptr, align 8
  store ptr %0, ptr %5, align 8
  store ptr %1, ptr %6, align 8
  store ptr %2, ptr %7, align 8
  store ptr %3, ptr %8, align 8
  call void @llvm.lifetime.start.p0(i64 4, ptr %9) #14
  store i32 0, ptr %9, align 4
  call void @llvm.lifetime.start.p0(i64 4, ptr %10) #14
  %13 = load ptr, ptr %7, align 8
  %14 = call i32 @tvb_reported_length(ptr noundef %13)
  store i32 %14, ptr %10, align 4
  call void @llvm.lifetime.start.p0(i64 8, ptr %11) #14
  %15 = load ptr, ptr %5, align 8
  %16 = getelementptr inbounds nuw %struct._diam_ctx_t, ptr %15, i32 0, i32 0
  %17 = load ptr, ptr %16, align 8
  %18 = load ptr, ptr %6, align 8
  %19 = getelementptr inbounds nuw %struct._diam_avp_t, ptr %18, i32 0, i32 4
  %20 = load i32, ptr %19, align 4
  %21 = load ptr, ptr %7, align 8
  %22 = call ptr @proto_tree_add_item(ptr noundef %17, i32 noundef %20, ptr noundef %21, i32 noundef 0, i32 noundef -1, i32 noundef 0)
  store ptr %22, ptr %11, align 8
  call void @llvm.lifetime.start.p0(i64 8, ptr %12) #14
  %23 = load ptr, ptr %5, align 8
  %24 = getelementptr inbounds nuw %struct._diam_ctx_t, ptr %23, i32 0, i32 0
  %25 = load ptr, ptr %24, align 8
  store ptr %25, ptr %12, align 8
  %26 = load ptr, ptr %11, align 8
  %27 = load ptr, ptr %6, align 8
  %28 = getelementptr inbounds nuw %struct._diam_avp_t, ptr %27, i32 0, i32 3
  %29 = load i32, ptr %28, align 8
  %30 = call ptr @proto_item_add_subtree(ptr noundef %26, i32 noundef %29)
  %31 = load ptr, ptr %5, align 8
  %32 = getelementptr inbounds nuw %struct._diam_ctx_t, ptr %31, i32 0, i32 0
  store ptr %30, ptr %32, align 8
  %33 = load ptr, ptr %8, align 8
  %34 = getelementptr inbounds nuw %struct._diam_sub_dis_t, ptr %33, i32 0, i32 3
  store i8 1, ptr %34, align 4
  br label %35

35:                                               ; preds = %39, %4
  %36 = load i32, ptr %9, align 4
  %37 = load i32, ptr %10, align 4
  %38 = icmp slt i32 %36, %37
  br i1 %38, label %39, label %47

39:                                               ; preds = %35
  %40 = load ptr, ptr %5, align 8
  %41 = load ptr, ptr %7, align 8
  %42 = load i32, ptr %9, align 4
  %43 = load ptr, ptr %8, align 8
  %44 = call i32 @dissect_diameter_avp(ptr noundef %40, ptr noundef %41, i32 noundef %42, ptr noundef %43, i1 noundef zeroext false)
  %45 = load i32, ptr %9, align 4
  %46 = add i32 %45, %44
  store i32 %46, ptr %9, align 4
  br label %35, !llvm.loop !23

47:                                               ; preds = %35
  %48 = load ptr, ptr %8, align 8
  %49 = getelementptr inbounds nuw %struct._diam_sub_dis_t, ptr %48, i32 0, i32 4
  store i32 0, ptr %49, align 8
  %50 = load ptr, ptr %8, align 8
  %51 = getelementptr inbounds nuw %struct._diam_sub_dis_t, ptr %50, i32 0, i32 3
  store i8 0, ptr %51, align 4
  %52 = load ptr, ptr %8, align 8
  %53 = getelementptr inbounds nuw %struct._diam_sub_dis_t, ptr %52, i32 0, i32 5
  store ptr null, ptr %53, align 8
  %54 = load ptr, ptr %12, align 8
  %55 = load ptr, ptr %5, align 8
  %56 = getelementptr inbounds nuw %struct._diam_ctx_t, ptr %55, i32 0, i32 0
  store ptr %54, ptr %56, align 8
  call void @llvm.lifetime.end.p0(i64 8, ptr %12) #14
  call void @llvm.lifetime.end.p0(i64 8, ptr %11) #14
  call void @llvm.lifetime.end.p0(i64 4, ptr %10) #14
  call void @llvm.lifetime.end.p0(i64 4, ptr %9) #14
  ret ptr null
}