; Function Attrs: null_pointer_is_valid sspstrong uwtable
define internal noalias noundef ptr @grouped_avp(ptr noundef %0, ptr noundef readonly captures(none) %1, ptr noundef %2, ptr noundef initializes((12, 13)) %3) #0 {
  %5 = tail call i32 @tvb_reported_length(ptr noundef %2)
  %6 = load ptr, ptr %0, align 8
  %7 = getelementptr inbounds nuw i8, ptr %1, i64 28
  %8 = load i32, ptr %7, align 4
  %9 = tail call ptr @proto_tree_add_item(ptr noundef %6, i32 noundef %8, ptr noundef %2, i32 noundef 0, i32 noundef -1, i32 noundef 0)
  %10 = load ptr, ptr %0, align 8
  %11 = getelementptr inbounds nuw i8, ptr %1, i64 24
  %12 = load i32, ptr %11, align 8
  %13 = tail call ptr @proto_item_add_subtree(ptr noundef %9, i32 noundef %12)
  store ptr %13, ptr %0, align 8
  %14 = getelementptr inbounds nuw i8, ptr %3, i64 12
  store i8 1, ptr %14, align 4
  %15 = icmp sgt i32 %5, 0
  br i1 %15, label %.lr.ph, label %._crit_edge

.lr.ph:                                           ; preds = %4, %.lr.ph
  %.020 = phi i32 [ %17, %.lr.ph ], [ 0, %4 ]
  %16 = tail call fastcc i32 @dissect_diameter_avp(ptr noundef %0, ptr noundef %2, i32 noundef %.020, ptr noundef %3, i1 noundef zeroext false)
  %17 = add i32 %16, %.020
  %18 = icmp slt i32 %17, %5
  br i1 %18, label %.lr.ph, label %._crit_edge, !llvm.loop !21

._crit_edge:                                      ; preds = %.lr.ph, %4
  %19 = getelementptr inbounds nuw i8, ptr %3, i64 16
  store i32 0, ptr %19, align 8
  store i8 0, ptr %14, align 4
  %20 = getelementptr inbounds nuw i8, ptr %3, i64 24
  store ptr null, ptr %20, align 8
  store ptr %10, ptr %0, align 8
  ret ptr null
}